target datalayout = "e-m:e-p270:32:32-p271:32:32-p272:64:64-i64:64-i128:128-f80:128-n8:16:32:64-S128"
target triple = "x86_64-pc-linux-gnu"

%"class.gmx::MttkData" = type { %"class.gmx::ICheckpointHelperClient", float, float, float, double, double, double, float, [3 x [3 x float]], float, float, float, ptr, ptr, %"class.std::__cxx11::basic_string" }
%"class.gmx::ICheckpointHelperClient" = type { ptr }
%"class.std::__cxx11::basic_string" = type { %"struct.std::__cxx11::basic_string<char>::_Alloc_hider", i64, %union.anon }
%"struct.std::__cxx11::basic_string<char>::_Alloc_hider" = type { ptr }
%union.anon = type { i64, [8 x i8] }

; Function Attrs: mustprogress nounwind uwtable
define noundef float @_ZNK3gmx8MttkData13kineticEnergyEv(ptr noundef nonnull align 8 dereferenceable(152) %0) #2 align 2 {
  %2 = alloca ptr, align 8
  store ptr %0, ptr %2, align 8, !tbaa !4
  %3 = load ptr, ptr %2, align 8
  %4 = getelementptr inbounds nuw %"class.gmx::MttkData", ptr %3, i32 0, i32 2
  %5 = load float, ptr %4, align 4, !tbaa !713
  %6 = fpext float %5 to double
  %7 = fmul double 5.000000e-01, %6
  %8 = getelementptr inbounds nuw %"class.gmx::MttkData", ptr %3, i32 0, i32 2
  %9 = load float, ptr %8, align 4, !tbaa !713
  %10 = fpext float %9 to double
  %11 = fmul double %7, %10
  %12 = getelementptr inbounds nuw %"class.gmx::MttkData", ptr %3, i32 0, i32 3
  %13 = load float, ptr %12, align 8, !tbaa !705
  %14 = fpext float %13 to double
  %15 = fdiv double %11, %14
  %16 = fptrunc double %15 to float
  ret float %16
}

; Function Attrs: mustprogress uwtable
define void @_ZN3gmx8MttkData17calculateIntegralEf(ptr noundef nonnull align 8 dereferenceable(152) %0, float noundef %1) #1 align 2 {
  %3 = alloca ptr, align 8
  %4 = alloca float, align 4
  store ptr %0, ptr %3, align 8, !tbaa !4
  store float %1, ptr %4, align 4, !tbaa !111
  %5 = load ptr, ptr %3, align 8
  %6 = call noundef float @_ZNK3gmx8MttkData13kineticEnergyEv(ptr noundef nonnull align 8 dereferenceable(152) %5)
  %7 = fpext float %6 to double
  %8 = load float, ptr %4, align 4, !tbaa !111
  %9 = getelementptr inbounds nuw %"class.gmx::MttkData", ptr %5, i32 0, i32 7
  %10 = load float, ptr %9, align 8, !tbaa !716
  %11 = fmul float %8, %10
  %12 = fpext float %11 to double
  %13 = fdiv double %12, 0x40309AFAE1F7C60E
  %14 = fadd double %7, %13
  %15 = getelementptr inbounds nuw %"class.gmx::MttkData", ptr %5, i32 0, i32 5
  store double %14, ptr %15, align 8, !tbaa !697
  %16 = getelementptr inbounds nuw %"class.gmx::MttkData", ptr %5, i32 0, i32 4
  %17 = load double, ptr %16, align 8, !tbaa !714
  %18 = getelementptr inbounds nuw %"class.gmx::MttkData", ptr %5, i32 0, i32 6
  store double %17, ptr %18, align 8, !tbaa !715
  ret void
}

; Function Attrs: inlinehint mustprogress nounwind uwtable
define internal noundef float @_ZL3detPA3_Kf(ptr noundef %0) #0 {
  %2 = alloca ptr, align 8
  store ptr %0, ptr %2, align 8, !tbaa !215
  %3 = load ptr, ptr %2, align 8, !tbaa !215
  %4 = getelementptr inbounds [3 x float], ptr %3, i64 0
  %5 = getelementptr inbounds [3 x float], ptr %4, i64 0, i64 0
  %6 = load float, ptr %5, align 4, !tbaa !111
  %7 = load ptr, ptr %2, align 8, !tbaa !215
  %8 = getelementptr inbounds [3 x float], ptr %7, i64 1
  %9 = getelementptr inbounds [3 x float], ptr %8, i64 0, i64 1
  %10 = load float, ptr %9, align 4, !tbaa !111
  %11 = load ptr, ptr %2, align 8, !tbaa !215
  %12 = getelementptr inbounds [3 x float], ptr %11, i64 2
  %13 = getelementptr inbounds [3 x float], ptr %12, i64 0, i64 2
  %14 = load float, ptr %13, align 4, !tbaa !111
  %15 = load ptr, ptr %2, align 8, !tbaa !215
  %16 = getelementptr inbounds [3 x float], ptr %15, i64 2
  %17 = getelementptr inbounds [3 x float], ptr %16, i64 0, i64 1
  %18 = load float, ptr %17, align 4, !tbaa !111
  %19 = load ptr, ptr %2, align 8, !tbaa !215
  %20 = getelementptr inbounds [3 x float], ptr %19, i64 1
  %21 = getelementptr inbounds [3 x float], ptr %20, i64 0, i64 2
  %22 = load float, ptr %21, align 4, !tbaa !111
  %23 = fmul float %18, %22
  %24 = fneg float %23
  %25 = call float @llvm.fmuladd.f32(float %10, float %14, float %24)
  %26 = load ptr, ptr %2, align 8, !tbaa !215
  %27 = getelementptr inbounds [3 x float], ptr %26, i64 1
  %28 = getelementptr inbounds [3 x float], ptr %27, i64 0, i64 0
  %29 = load float, ptr %28, align 4, !tbaa !111
  %30 = load ptr, ptr %2, align 8, !tbaa !215
  %31 = getelementptr inbounds [3 x float], ptr %30, i64 0
  %32 = getelementptr inbounds [3 x float], ptr %31, i64 0, i64 1
  %33 = load float, ptr %32, align 4, !tbaa !111
  %34 = load ptr, ptr %2, align 8, !tbaa !215
  %35 = getelementptr inbounds [3 x float], ptr %34, i64 2
  %36 = getelementptr inbounds [3 x float], ptr %35, i64 0, i64 2
  %37 = load float, ptr %36, align 4, !tbaa !111
  %38 = load ptr, ptr %2, align 8, !tbaa !215
  %39 = getelementptr inbounds [3 x float], ptr %38, i64 2
  %40 = getelementptr inbounds [3 x float], ptr %39, i64 0, i64 1
  %41 = load float, ptr %40, align 4, !tbaa !111
  %42 = load ptr, ptr %2, align 8, !tbaa !215
  %43 = getelementptr inbounds [3 x float], ptr %42, i64 0
  %44 = getelementptr inbounds [3 x float], ptr %43, i64 0, i64 2
  %45 = load float, ptr %44, align 4, !tbaa !111
  %46 = fmul float %41, %45
  %47 = fneg float %46
  %48 = call float @llvm.fmuladd.f32(float %33, float %37, float %47)
  %49 = fmul float %29, %48
  %50 = fneg float %49
  %51 = call float @llvm.fmuladd.f32(float %6, float %25, float %50)
  %52 = load ptr, ptr %2, align 8, !tbaa !215
  %53 = getelementptr inbounds [3 x float], ptr %52, i64 2
  %54 = getelementptr inbounds [3 x float], ptr %53, i64 0, i64 0
  %55 = load float, ptr %54, align 4, !tbaa !111
  %56 = load ptr, ptr %2, align 8, !tbaa !215
  %57 = getelementptr inbounds [3 x float], ptr %56, i64 0
  %58 = getelementptr inbounds [3 x float], ptr %57, i64 0, i64 1
  %59 = load float, ptr %58, align 4, !tbaa !111
  %60 = load ptr, ptr %2, align 8, !tbaa !215
  %61 = getelementptr inbounds [3 x float], ptr %60, i64 1
  %62 = getelementptr inbounds [3 x float], ptr %61, i64 0, i64 2
  %63 = load float, ptr %62, align 4, !tbaa !111
  %64 = load ptr, ptr %2, align 8, !tbaa !215
  %65 = getelementptr inbounds [3 x float], ptr %64, i64 1
  %66 = getelementptr inbounds [3 x float], ptr %65, i64 0, i64 1
  %67 = load float, ptr %66, align 4, !tbaa !111
  %68 = load ptr, ptr %2, align 8, !tbaa !215
  %69 = getelementptr inbounds [3 x float], ptr %68, i64 0
  %70 = getelementptr inbounds [3 x float], ptr %69, i64 0, i64 2
  %71 = load float, ptr %70, align 4, !tbaa !111
  %72 = fmul float %67, %71
  %73 = fneg float %72
  %74 = call float @llvm.fmuladd.f32(float %59, float %63, float %73)
  %75 = call float @llvm.fmuladd.f32(float %55, float %74, float %51)
  ret float %75
}

; Function Attrs: inlinehint mustprogress nounwind uwtable
define linkonce_odr noundef zeroext i1 @_ZN3gmx10timesCloseEdd(double noundef %0, double noundef %1) #0 comdat {
  %3 = alloca double, align 8
  %4 = alloca double, align 8
  %5 = alloca float, align 4
  store double %0, ptr %3, align 8, !tbaa !37
  store double %1, ptr %4, align 8, !tbaa !37
  call void @llvm.lifetime.start.p0(i64 4, ptr %5) #21
  store float 0x3EB0C6F7A0000000, ptr %5, align 4, !tbaa !111
  %6 = load double, ptr %3, align 8, !tbaa !37
  %7 = load double, ptr %4, align 8, !tbaa !37
  %8 = fsub double %6, %7
  %9 = load double, ptr %3, align 8, !tbaa !37
  %10 = load double, ptr %4, align 8, !tbaa !37
  %11 = fsub double %9, %10
  %12 = fmul double %8, %11
  %13 = fcmp olt double %12, 0x3D71979980000000
  call void @llvm.lifetime.end.p0(i64 4, ptr %5) #21
  ret i1 %13
}

; Function Attrs: mustprogress uwtable
define void @_ZN3gmx8MttkData25calculateIntegralIfNeededEv(ptr noundef nonnull align 8 dereferenceable(152) %0) #1 align 2 {
  %2 = alloca ptr, align 8
  %3 = alloca i8, align 1
  %4 = alloca float, align 4
  store ptr %0, ptr %2, align 8, !tbaa !4
  %5 = load ptr, ptr %2, align 8
  call void @llvm.lifetime.start.p0(i64 1, ptr %3) #21
  %6 = getelementptr inbounds nuw %"class.gmx::MttkData", ptr %5, i32 0, i32 4
  %7 = load double, ptr %6, align 8, !tbaa !714
  %8 = getelementptr inbounds nuw %"class.gmx::MttkData", ptr %5, i32 0, i32 1
  %9 = load float, ptr %8, align 8, !tbaa !712
  %10 = fpext float %9 to double
  %11 = fdiv double %7, %10
  %12 = call i64 @lround(double noundef %11) #21, !tbaa !114
  %13 = sitofp i64 %12 to float
  %14 = getelementptr inbounds nuw %"class.gmx::MttkData", ptr %5, i32 0, i32 1
  %15 = load float, ptr %14, align 8, !tbaa !712
  %16 = fmul float %13, %15
  %17 = fpext float %16 to double
  %18 = getelementptr inbounds nuw %"class.gmx::MttkData", ptr %5, i32 0, i32 4
  %19 = load double, ptr %18, align 8, !tbaa !714
  %20 = call noundef zeroext i1 @_ZN3gmx10timesCloseEdd(double noundef %17, double noundef %19)
  %21 = zext i1 %20 to i8
  store i8 %21, ptr %3, align 1, !tbaa !357
  %22 = load i8, ptr %3, align 1, !tbaa !357, !range !406, !noundef !407
  %23 = trunc i8 %22 to i1
  br i1 %23, label %24, label %30

24:                                               ; preds = %1
  call void @llvm.lifetime.start.p0(i64 4, ptr %4) #21
  %25 = getelementptr inbounds nuw %"class.gmx::MttkData", ptr %5, i32 0, i32 12
  %26 = load ptr, ptr %25, align 8, !tbaa !719
  %27 = call noundef ptr @_ZNK3gmx19StatePropagatorData8constBoxEv(ptr noundef nonnull align 8 dereferenceable(632) %26)
  %28 = call noundef float @_ZL3detPA3_Kf(ptr noundef %27)
  store float %28, ptr %4, align 4, !tbaa !111
  %29 = load float, ptr %4, align 4, !tbaa !111
  call void @_ZN3gmx8MttkData17calculateIntegralEf(ptr noundef nonnull align 8 dereferenceable(152) %5, float noundef %29)
  call void @llvm.lifetime.end.p0(i64 4, ptr %4) #21
  br label %30

30:                                               ; preds = %24, %1
  call void @llvm.lifetime.end.p0(i64 1, ptr %3) #21
  ret void
}