; Function Attrs: mustprogress uwtable
define void @_ZN3gmx8MttkData25calculateIntegralIfNeededEv(ptr noundef nonnull align 8 captures(none) dereferenceable(152) %0) local_unnamed_addr #1 align 2 {
  %2 = getelementptr inbounds nuw i8, ptr %0, i64 24
  %3 = load double, ptr %2, align 8, !tbaa !334
  %4 = getelementptr inbounds nuw i8, ptr %0, i64 8
  %5 = load float, ptr %4, align 8, !tbaa !327
  %6 = fpext float %5 to double
  %7 = fdiv double %3, %6
  %8 = tail call i64 @lround(double noundef %7) #36, !tbaa !68
  %9 = sitofp i64 %8 to float
  %10 = fmul float %5, %9
  %11 = fpext float %10 to double
  %12 = fsub double %11, %3
  %13 = fmul double %12, %12
  %14 = fcmp olt double %13, 0x3D71979980000000
  br i1 %14, label %15, label %68

15:                                               ; preds = %1
  %16 = getelementptr inbounds nuw i8, ptr %0, i64 104
  %17 = load ptr, ptr %16, align 8, !tbaa !332
  %18 = tail call noundef ptr @_ZNK3gmx19StatePropagatorData8constBoxEv(ptr noundef nonnull align 8 dereferenceable(632) %17)
  %19 = load float, ptr %18, align 4, !tbaa !115
  %20 = getelementptr inbounds nuw i8, ptr %18, i64 12
  %21 = getelementptr inbounds nuw i8, ptr %18, i64 16
  %22 = load float, ptr %21, align 4, !tbaa !115
  %23 = getelementptr inbounds nuw i8, ptr %18, i64 24
  %24 = getelementptr inbounds nuw i8, ptr %18, i64 32
  %25 = load float, ptr %24, align 4, !tbaa !115
  %26 = getelementptr inbounds nuw i8, ptr %18, i64 28
  %27 = load float, ptr %26, align 4, !tbaa !115
  %28 = getelementptr inbounds nuw i8, ptr %18, i64 20
  %29 = load float, ptr %28, align 4, !tbaa !115
  %30 = fneg float %29
  %31 = fmul float %27, %30
  %32 = tail call float @llvm.fmuladd.f32(float %22, float %25, float %31)
  %33 = load float, ptr %20, align 4, !tbaa !115
  %34 = getelementptr inbounds nuw i8, ptr %18, i64 4
  %35 = load float, ptr %34, align 4, !tbaa !115
  %36 = getelementptr inbounds nuw i8, ptr %18, i64 8
  %37 = load float, ptr %36, align 4, !tbaa !115
  %38 = fneg float %37
  %39 = fmul float %27, %38
  %40 = tail call float @llvm.fmuladd.f32(float %35, float %25, float %39)
  %41 = fneg float %40
  %42 = fmul float %33, %41
  %43 = tail call float @llvm.fmuladd.f32(float %19, float %32, float %42)
  %44 = load float, ptr %23, align 4, !tbaa !115
  %45 = fmul float %22, %38
  %46 = tail call float @llvm.fmuladd.f32(float %35, float %29, float %45)
  %47 = tail call noundef float @llvm.fmuladd.f32(float %44, float %46, float %43)
  %48 = getelementptr inbounds nuw i8, ptr %0, i64 12
  %49 = load float, ptr %48, align 4, !tbaa !328
  %50 = fpext float %49 to double
  %51 = fmul double %50, 5.000000e-01
  %52 = fmul double %51, %50
  %53 = getelementptr inbounds nuw i8, ptr %0, i64 16
  %54 = load float, ptr %53, align 8, !tbaa !326
  %55 = fpext float %54 to double
  %56 = fdiv double %52, %55
  %57 = fptrunc double %56 to float
  %58 = fpext float %57 to double
  %59 = getelementptr inbounds nuw i8, ptr %0, i64 48
  %60 = load float, ptr %59, align 8, !tbaa !329
  %61 = fmul float %60, %47
  %62 = fpext float %61 to double
  %63 = fdiv double %62, 0x40309AFAE1F7C60E
  %64 = fadd double %63, %58
  %65 = getelementptr inbounds nuw i8, ptr %0, i64 32
  store double %64, ptr %65, align 8, !tbaa !318
  %66 = load double, ptr %2, align 8, !tbaa !334
  %67 = getelementptr inbounds nuw i8, ptr %0, i64 40
  store double %66, ptr %67, align 8, !tbaa !333
  br label %68

68:                                               ; preds = %15, %1
  ret void
}